target datalayout = "e-m:e-p270:32:32-p271:32:32-p272:64:64-i64:64-i128:128-f80:128-n8:16:32:64-S128"
target triple = "x86_64-pc-linux-gnu"

%struct._tapinfo_t = type { ptr, ptr, ptr }

; Function Attrs: mustprogress uwtable
define internal noundef i32 @_ZL23btatt_handle_tap_packetPvP12_packet_infoP12epan_dissectPKvj(ptr noundef %0, ptr noundef %1, ptr noundef %2, ptr noundef %3, i32 noundef %4) #0 {
  %6 = alloca ptr, align 8
  %7 = alloca ptr, align 8
  %8 = alloca ptr, align 8
  %9 = alloca ptr, align 8
  %10 = alloca i32, align 4
  %11 = alloca ptr, align 8
  store ptr %0, ptr %6, align 8
  store ptr %1, ptr %7, align 8
  store ptr %2, ptr %8, align 8
  store ptr %3, ptr %9, align 8
  store i32 %4, ptr %10, align 4
  %12 = load ptr, ptr %6, align 8
  store ptr %12, ptr %11, align 8
  %13 = load ptr, ptr %11, align 8
  %14 = getelementptr inbounds %struct._tapinfo_t, ptr %13, i32 0, i32 1
  %15 = load ptr, ptr %14, align 8
  %16 = icmp ne ptr %15, null
  br i1 %16, label %17, label %27

17:                                               ; preds = %5
  %18 = load ptr, ptr %11, align 8
  %19 = getelementptr inbounds %struct._tapinfo_t, ptr %18, i32 0, i32 1
  %20 = load ptr, ptr %19, align 8
  %21 = load ptr, ptr %11, align 8
  %22 = load ptr, ptr %7, align 8
  %23 = load ptr, ptr %8, align 8
  %24 = load ptr, ptr %9, align 8
  %25 = load i32, ptr %10, align 4
  %26 = call noundef i32 %20(ptr noundef %21, ptr noundef %22, ptr noundef %23, ptr noundef %24, i32 noundef %25)
  br label %27

27:                                               ; preds = %17, %5
  ret i32 1
}